; Function Attrs: mustprogress nounwind uwtable
define void @_ZN7rocksdb19WriteBatchWithIndexD2Ev(ptr noundef nonnull align 8 dereferenceable(16) initializes((0, 8)) %0) unnamed_addr #1 align 2 {
  store ptr getelementptr inbounds nuw inrange(-16, 296) (i8, ptr @_ZTVN7rocksdb19WriteBatchWithIndexE, i64 16), ptr %0, align 8, !tbaa !88
  %2 = getelementptr inbounds nuw i8, ptr %0, i64 8
  %3 = load ptr, ptr %2, align 8, !tbaa !202
  %.not.i = icmp eq ptr %3, null
  br i1 %.not.i, label %_ZNSt10unique_ptrIN7rocksdb19WriteBatchWithIndex3RepESt14default_deleteIS2_EED2Ev.exit, label %4

4:                                                ; preds = %1
  tail call void @_ZNKSt14default_deleteIN7rocksdb19WriteBatchWithIndex3RepEEclEPS2_(ptr noundef nonnull align 8 dereferenceable(8) %2, ptr noundef nonnull %3)
  br label %_ZNSt10unique_ptrIN7rocksdb19WriteBatchWithIndex3RepESt14default_deleteIS2_EED2Ev.exit

_ZNSt10unique_ptrIN7rocksdb19WriteBatchWithIndex3RepESt14default_deleteIS2_EED2Ev.exit: ; preds = %1, %4
  store ptr null, ptr %2, align 8, !tbaa !202
  ret void
}